target datalayout = "e-m:e-p270:32:32-p271:32:32-p272:64:64-i64:64-i128:128-f80:128-n8:16:32:64-S128"
target triple = "x86_64-pc-linux-gnu"

%struct.pbl_node_t = type { i32, ptr, ptr, ptr, ptr, ptr, ptr, i32 }

; Function Attrs: null_pointer_is_valid sspstrong uwtable
define hidden ptr @pbl_set_node_name(ptr noundef %0, i32 noundef %1, ptr noundef %2) #0 {
  %4 = alloca ptr, align 8
  %5 = alloca i32, align 4
  %6 = alloca ptr, align 8
  store ptr %0, ptr %4, align 8
  store i32 %1, ptr %5, align 4
  store ptr %2, ptr %6, align 8
  %7 = load ptr, ptr %4, align 8
  %8 = getelementptr inbounds nuw %struct.pbl_node_t, ptr %7, i32 0, i32 1
  %9 = load ptr, ptr %8, align 8
  call void @g_free(ptr noundef %9)
  %10 = load ptr, ptr %6, align 8
  %11 = call noalias ptr @g_strdup(ptr noundef %10)
  %12 = load ptr, ptr %4, align 8
  %13 = getelementptr inbounds nuw %struct.pbl_node_t, ptr %12, i32 0, i32 1
  store ptr %11, ptr %13, align 8
  %14 = load i32, ptr %5, align 4
  %15 = icmp sgt i32 %14, -1
  br i1 %15, label %16, label %20

16:                                               ; preds = %3
  %17 = load i32, ptr %5, align 4
  %18 = load ptr, ptr %4, align 8
  %19 = getelementptr inbounds nuw %struct.pbl_node_t, ptr %18, i32 0, i32 7
  store i32 %17, ptr %19, align 8
  br label %20

20:                                               ; preds = %16, %3
  %21 = load ptr, ptr %4, align 8
  ret ptr %21
}