; Function Attrs: null_pointer_is_valid sspstrong uwtable
define hidden noundef ptr @pbl_set_node_name(ptr noundef returned captures(ret: address, provenance) %0, i32 noundef %1, ptr noundef %2) local_unnamed_addr #0 {
  %4 = getelementptr inbounds nuw i8, ptr %0, i64 8
  %5 = load ptr, ptr %4, align 8
  tail call void @g_free(ptr noundef %5)
  %6 = tail call noalias ptr @g_strdup(ptr noundef %2)
  store ptr %6, ptr %4, align 8
  %7 = icmp sgt i32 %1, -1
  br i1 %7, label %8, label %10

8:                                                ; preds = %3
  %9 = getelementptr inbounds nuw i8, ptr %0, i64 56
  store i32 %1, ptr %9, align 8
  br label %10

10:                                               ; preds = %8, %3
  ret ptr %0
}